; ModuleID = '22/1046.c'
source_filename = "22/1046.c"
target datalayout = "e-m:e-p270:32:32-p271:32:32-p272:64:64-i64:64-f80:128-n8:16:32:64-S128"
target triple = "x86_64-pc-linux-gnu"

@.str = private unnamed_addr constant [3 x i8] c"%d\00", align 1
@.str.1 = private unnamed_addr constant [3 x i8] c"No\00", align 1

; Function Attrs: noinline nounwind uwtable
define dso_local i32 @main() #0 {
  %1 = alloca i32, align 4
  %2 = alloca i32, align 4
  %3 = alloca i32, align 4
  %4 = alloca i32, align 4
  %5 = alloca i32, align 4
  %6 = alloca i32, align 4
  %7 = alloca i8, align 1
  store i32 0, i32* %1, align 4
  store i32 0, i32* %3, align 4
  store i32 0, i32* %4, align 4
  store i32 0, i32* %5, align 4
  store i32 0, i32* %6, align 4
  %8 = call i32 (i8*, ...) @__isoc99_scanf(i8* getelementptr inbounds ([3 x i8], [3 x i8]* @.str, i64 0, i64 0), i32* %2)
  %9 = call i32 @getchar()
  %10 = trunc i32 %9 to i8
  store i8 %10, i8* %7, align 1
  br label %11

11:                                               ; preds = %39, %0
  %12 = load i8, i8* %7, align 1
  %13 = sext i8 %12 to i32
  %14 = icmp eq i32 %13, 44
  br i1 %14, label %15, label %43

15:                                               ; preds = %11
  %16 = load i32, i32* %5, align 4
  %17 = add nsw i32 %16, 1
  store i32 %17, i32* %5, align 4
  %18 = load i32, i32* %2, align 4
  %19 = load i32, i32* %3, align 4
  %20 = icmp sgt i32 %18, %19
  br i1 %20, label %21, label %24

21:                                               ; preds = %15
  %22 = load i32, i32* %3, align 4
  store i32 %22, i32* %4, align 4
  %23 = load i32, i32* %2, align 4
  store i32 %23, i32* %3, align 4
  br label %39

24:                                               ; preds = %15
  %25 = load i32, i32* %2, align 4
  %26 = load i32, i32* %3, align 4
  %27 = icmp eq i32 %25, %26
  br i1 %27, label %28, label %31

28:                                               ; preds = %24
  %29 = load i32, i32* %6, align 4
  %30 = add nsw i32 %29, 1
  store i32 %30, i32* %6, align 4
  br label %38

31:                                               ; preds = %24
  %32 = load i32, i32* %2, align 4
  %33 = load i32, i32* %4, align 4
  %34 = icmp sgt i32 %32, %33
  br i1 %34, label %35, label %37

35:                                               ; preds = %31
  %36 = load i32, i32* %2, align 4
  store i32 %36, i32* %4, align 4
  br label %37

37:                                               ; preds = %35, %31
  br label %38

38:                                               ; preds = %37, %28
  br label %39

39:                                               ; preds = %38, %21
  %40 = call i32 (i8*, ...) @__isoc99_scanf(i8* getelementptr inbounds ([3 x i8], [3 x i8]* @.str, i64 0, i64 0), i32* %2)
  %41 = call i32 @getchar()
  %42 = trunc i32 %41 to i8
  store i8 %42, i8* %7, align 1
  br label %11

43:                                               ; preds = %11
  %44 = load i32, i32* %5, align 4
  %45 = add nsw i32 %44, 1
  store i32 %45, i32* %5, align 4
  %46 = load i32, i32* %2, align 4
  %47 = load i32, i32* %3, align 4
  %48 = icmp sgt i32 %46, %47
  br i1 %48, label %49, label %52

49:                                               ; preds = %43
  %50 = load i32, i32* %3, align 4
  store i32 %50, i32* %4, align 4
  %51 = load i32, i32* %2, align 4
  store i32 %51, i32* %3, align 4
  br label %67

52:                                               ; preds = %43
  %53 = load i32, i32* %2, align 4
  %54 = load i32, i32* %3, align 4
  %55 = icmp eq i32 %53, %54
  br i1 %55, label %56, label %59

56:                                               ; preds = %52
  %57 = load i32, i32* %6, align 4
  %58 = add nsw i32 %57, 1
  store i32 %58, i32* %6, align 4
  br label %66

59:                                               ; preds = %52
  %60 = load i32, i32* %2, align 4
  %61 = load i32, i32* %4, align 4
  %62 = icmp sgt i32 %60, %61
  br i1 %62, label %63, label %65

63:                                               ; preds = %59
  %64 = load i32, i32* %2, align 4
  store i32 %64, i32* %4, align 4
  br label %65

65:                                               ; preds = %63, %59
  br label %66

66:                                               ; preds = %65, %56
  br label %67

67:                                               ; preds = %66, %49
  %68 = load i32, i32* %5, align 4
  %69 = icmp eq i32 %68, 1
  br i1 %69, label %70, label %72

70:                                               ; preds = %67
  %71 = call i32 (i8*, ...) @printf(i8* getelementptr inbounds ([3 x i8], [3 x i8]* @.str.1, i64 0, i64 0))
  br label %83

72:                                               ; preds = %67
  %73 = load i32, i32* %5, align 4
  %74 = load i32, i32* %6, align 4
  %75 = add nsw i32 %74, 1
  %76 = icmp eq i32 %73, %75
  br i1 %76, label %77, label %79

77:                                               ; preds = %72
  %78 = call i32 (i8*, ...) @printf(i8* getelementptr inbounds ([3 x i8], [3 x i8]* @.str.1, i64 0, i64 0))
  br label %82

79:                                               ; preds = %72
  %80 = load i32, i32* %4, align 4
  %81 = call i32 (i8*, ...) @printf(i8* getelementptr inbounds ([3 x i8], [3 x i8]* @.str, i64 0, i64 0), i32 %80)
  br label %82

82:                                               ; preds = %79, %77
  br label %83

83:                                               ; preds = %82, %70
  ret i32 0
}

declare dso_local i32 @__isoc99_scanf(i8*, ...) #1

declare dso_local i32 @getchar() #1

declare dso_local i32 @printf(i8*, ...) #1


!llvm.module.flags = !{!0}
!llvm.ident = !{!1}

!0 = !{i32 1, !"wchar_size", i32 4}
!1 = !{!"clang version 10.0.0-4ubuntu1 "}
